(dp0
S'users'
p1
(dp2
S'xenia'
p3
(dp4
S'sups'
p5
(lp6
(dp7
S'date'
p8
V2015-04-03T03:11:04.954Z
p9
sS'sup_id'
p10
V7
p11
sS'sender_id'
p12
S'xenia'
p13
sa(dp14
S'date'
p15
V2015-04-03T03:12:38.231Z
p16
sS'sup_id'
p17
V3
p18
sS'sender_id'
p19
S'xenia'
p20
sa(dp21
S'date'
p22
V2015-04-03T03:14:01.166Z
p23
sS'sup_id'
p24
V7
p25
sS'sender_id'
p26
S'xenia'
p27
sa(dp28
S'date'
p29
V2015-04-03T04:03:40.226Z
p30
sS'sup_id'
p31
V4
p32
sS'sender_id'
p33
S'xenia'
p34
sa(dp35
S'date'
p36
V2015-04-03T04:05:54.335Z
p37
sS'sup_id'
p38
V3
p39
sS'sender_id'
p40
S'xenia'
p41
sa(dp42
S'date'
p43
V2015-04-03T04:08:35.836Z
p44
sS'sup_id'
p45
V5
p46
sS'sender_id'
p47
S'xenia'
p48
sasS'user_id'
p49
g3
sS'full_name'
p50
S'xenia'
p51
sS'friends_list'
p52
(lp53
Vxenia
p54
asss.