(dp0
S'users'
p1
(dp2
S'xenia'
p3
(dp4
S'sups'
p5
(lp6
(dp7
S'date'
p8
V2015-04-03T06:52:42.660Z
p9
sS'sup_id'
p10
V0fa7068b-9002-44cc-a20d-1eb8ed674333
p11
sS'sender_id'
p12
S'xenia'
p13
sa(dp14
S'date'
p15
V2015-04-03T06:52:43.895Z
p16
sS'sup_id'
p17
V2264e430-2ac9-420e-b33c-5ee873a71e28
p18
sS'sender_id'
p19
S'xenia'
p20
sa(dp21
S'date'
p22
V2015-04-03T06:52:44.264Z
p23
sS'sup_id'
p24
Vf3a0f232-ecce-4514-9e3c-9c411925c51f
p25
sS'sender_id'
p26
S'xenia'
p27
sa(dp28
S'date'
p29
V2015-04-03T06:52:44.416Z
p30
sS'sup_id'
p31
V2dfd1dae-4ea5-494c-b163-09bdcbca8663
p32
sS'sender_id'
p33
S'xenia'
p34
sa(dp35
S'date'
p36
V2015-04-03T06:52:44.520Z
p37
sS'sup_id'
p38
V3900e7ba-ee3b-45cd-a065-c1d833cd9e6d
p39
sS'sender_id'
p40
S'xenia'
p41
sa(dp42
S'date'
p43
V2015-04-03T06:52:44.721Z
p44
sS'sup_id'
p45
Vde0742be-d846-4c3f-a72d-bbc6a52a88d9
p46
sS'sender_id'
p47
S'xenia'
p48
sa(dp49
S'date'
p50
V2015-04-03T06:52:44.873Z
p51
sS'sup_id'
p52
V91d6861a-4cc0-48c8-b522-c81a1078c92a
p53
sS'sender_id'
p54
S'xenia'
p55
sa(dp56
S'date'
p57
V2015-04-03T06:52:45.066Z
p58
sS'sup_id'
p59
V4f537e2a-8e1e-408c-8bef-ad55a0218190
p60
sS'sender_id'
p61
S'xenia'
p62
sasS'user_id'
p63
g3
sS'friends_list'
p64
(lp65
Vxenia
p66
aVfriend2
p67
aVfriend1
p68
asS'full_name'
p69
S'xenia'
p70
ssS'friend2'
p71
(dp72
S'sups'
p73
(lp74
sS'user_id'
p75
g71
sS'friends_list'
p76
(lp77
sS'full_name'
p78
S'Friend Two'
p79
ssS'friend1'
p80
(dp81
S'sups'
p82
(lp83
sS'user_id'
p84
g80
sS'full_name'
p85
S'Friend One'
p86
sS'friends_list'
p87
(lp88
sss.