(dp0
S'users'
p1
(dp2
S'xenia'
p3
(dp4
S'sups'
p5
(lp6
(dp7
S'date'
p8
V2015-04-03T20:20:49.567Z
p9
sS'sup_id'
p10
V98712d6a-da01-4d34-a66e-6e7cf03cbb59
p11
sS'sender_id'
p12
S'xenia'
p13
sa(dp14
S'date'
p15
V2015-04-03T20:20:49.703Z
p16
sS'sup_id'
p17
Vebf19200-43bb-4b66-b49d-b3991bc72094
p18
sS'sender_id'
p19
S'xenia'
p20
sa(dp21
S'date'
p22
V2015-04-03T20:20:49.834Z
p23
sS'sup_id'
p24
V7795d362-1b01-4da3-b0d7-ed7eb70c3fc0
p25
sS'sender_id'
p26
S'xenia'
p27
sa(dp28
S'date'
p29
V2015-04-03T20:21:17.127Z
p30
sS'sup_id'
p31
Vd65a2ee2-43c1-4795-9598-2a5cf60020d5
p32
sS'sender_id'
p33
S'xenia'
p34
sa(dp35
S'date'
p36
V2015-04-03T20:24:39.199Z
p37
sS'sup_id'
p38
V44f9e184-3784-4ca2-9b36-abfb55c96e89
p39
sS'sender_id'
p40
S'xenia'
p41
sasS'user_id'
p42
g3
sS'friends_list'
p43
(lp44
Vxenia
p45
aVfriend2
p46
aVfriend1
p47
asS'full_name'
p48
S'xenia'
p49
ssS'friend2'
p50
(dp51
S'sups'
p52
(lp53
sS'user_id'
p54
g50
sS'friends_list'
p55
(lp56
sS'full_name'
p57
S'Friend Two'
p58
ssS'friend1'
p59
(dp60
S'sups'
p61
(lp62
(dp63
S'date'
p64
V2015-04-03T19:39:20.640Z
p65
sS'sup_id'
p66
Vd1c7c5df-e53b-42cd-9835-9ecf6404a860
p67
sS'sender_id'
p68
S'xenia'
p69
sasS'user_id'
p70
g59
sS'full_name'
p71
S'Friend One'
p72
sS'friends_list'
p73
(lp74
sss.