(dp0
S'users'
p1
(dp2
S'xenia'
p3
(dp4
S'sups'
p5
(lp6
(dp7
S'date'
p8
V2015-04-03T19:21:48.667Z
p9
sS'sup_id'
p10
V29043cce-459e-4ef9-bc99-f8ccdeb0e53f
p11
sS'sender_id'
p12
S'xenia'
p13
sasS'user_id'
p14
g3
sS'friends_list'
p15
(lp16
Vxenia
p17
aVfriend2
p18
aVfriend1
p19
asS'full_name'
p20
S'xenia'
p21
ssS'friend2'
p22
(dp23
S'sups'
p24
(lp25
sS'user_id'
p26
g22
sS'friends_list'
p27
(lp28
sS'full_name'
p29
S'Friend Two'
p30
ssS'friend1'
p31
(dp32
S'sups'
p33
(lp34
sS'user_id'
p35
g31
sS'full_name'
p36
S'Friend One'
p37
sS'friends_list'
p38
(lp39
sss.