(dp0
S'users'
p1
(dp2
S'xenia'
p3
(dp4
S'sups'
p5
(lp6
(dp7
S'date'
p8
V2015-03-29T02:31:16.333Z
p9
sS'sup_id'
p10
(lp11
sS'sender_id'
p12
S'xenia'
p13
sa(dp14
S'date'
p15
V2015-03-29T02:31:17.047Z
p16
sS'sup_id'
p17
(lp18
sS'sender_id'
p19
S'xenia'
p20
sa(dp21
S'date'
p22
V2015-03-29T02:31:17.608Z
p23
sS'sup_id'
p24
(lp25
sS'sender_id'
p26
S'xenia'
p27
sa(dp28
S'date'
p29
V2015-03-29T02:31:18.065Z
p30
sS'sup_id'
p31
(lp32
sS'sender_id'
p33
S'xenia'
p34
sa(dp35
S'date'
p36
V2015-03-29T02:31:18.360Z
p37
sS'sup_id'
p38
(lp39
sS'sender_id'
p40
S'xenia'
p41
sa(dp42
S'date'
p43
V2015-03-29T02:31:18.766Z
p44
sS'sup_id'
p45
(lp46
sS'sender_id'
p47
S'xenia'
p48
sasS'user_id'
p49
g3
sS'friends_list'
p50
(lp51
Vfriend2
p52
aVfriend1
p53
aVxenia
p54
asS'full_name'
p55
S'xenia'
p56
ssS'friend2'
p57
(dp58
S'sups'
p59
(lp60
(dp61
S'date'
p62
V2015-03-29T02:30:43.038Z
p63
sS'sup_id'
p64
(lp65
sS'sender_id'
p66
S'xenia'
p67
sa(dp68
S'date'
p69
V2015-03-29T02:30:54.729Z
p70
sS'sup_id'
p71
(lp72
sS'sender_id'
p73
S'xenia'
p74
sa(dp75
S'date'
p76
V2015-03-29T02:30:55.603Z
p77
sS'sup_id'
p78
(lp79
sS'sender_id'
p80
S'xenia'
p81
sa(dp82
S'date'
p83
V2015-03-29T02:30:56.423Z
p84
sS'sup_id'
p85
(lp86
sS'sender_id'
p87
S'xenia'
p88
sa(dp89
S'date'
p90
V2015-03-29T02:30:56.934Z
p91
sS'sup_id'
p92
(lp93
sS'sender_id'
p94
S'xenia'
p95
sa(dp96
S'date'
p97
V2015-03-29T02:30:57.551Z
p98
sS'sup_id'
p99
(lp100
sS'sender_id'
p101
S'xenia'
p102
sa(dp103
S'date'
p104
V2015-03-29T02:30:58.156Z
p105
sS'sup_id'
p106
(lp107
sS'sender_id'
p108
S'xenia'
p109
sasS'user_id'
p110
g57
sS'full_name'
p111
S'friend2'
p112
sS'friends_list'
p113
(lp114
ssS'friend1'
p115
(dp116
S'sups'
p117
(lp118
(dp119
S'date'
p120
V2015-03-29T02:31:00.175Z
p121
sS'sup_id'
p122
(lp123
sS'sender_id'
p124
S'xenia'
p125
sa(dp126
S'date'
p127
V2015-03-29T02:31:00.551Z
p128
sS'sup_id'
p129
(lp130
sS'sender_id'
p131
S'xenia'
p132
sa(dp133
S'date'
p134
V2015-03-29T02:31:00.960Z
p135
sS'sup_id'
p136
(lp137
sS'sender_id'
p138
S'xenia'
p139
sa(dp140
S'date'
p141
V2015-03-29T02:31:06.193Z
p142
sS'sup_id'
p143
(lp144
sS'sender_id'
p145
S'xenia'
p146
sa(dp147
S'date'
p148
V2015-03-29T02:31:06.682Z
p149
sS'sup_id'
p150
(lp151
sS'sender_id'
p152
S'xenia'
p153
sa(dp154
S'date'
p155
V2015-03-29T02:31:07.018Z
p156
sS'sup_id'
p157
(lp158
sS'sender_id'
p159
S'xenia'
p160
sasS'user_id'
p161
g115
sS'friends_list'
p162
(lp163
sS'full_name'
p164
S'friend1'
p165
sss.