(dp0
S'users'
p1
(dp2
S'xenia'
p3
(dp4
S'sups'
p5
(lp6
sS'user_id'
p7
g3
sS'full_name'
p8
S'xenia'
p9
sS'friends_list'
p10
(lp11
Vfriend1
p12
aVfriend2
p13
assS'friend2'
p14
(dp15
S'sups'
p16
(lp17
sS'user_id'
p18
g14
sS'friends_list'
p19
(lp20
sS'full_name'
p21
S'friend2'
p22
ssS'friend1'
p23
(dp24
S'sups'
p25
(lp26
sS'user_id'
p27
g23
sS'full_name'
p28
S'friend1'
p29
sS'friends_list'
p30
(lp31
sss.